ARM GAS  /tmp/cczqctZk.s 			page 1


   1              		.cpu cortex-m3
   2              		.eabi_attribute 20, 1
   3              		.eabi_attribute 21, 1
   4              		.eabi_attribute 23, 3
   5              		.eabi_attribute 24, 1
   6              		.eabi_attribute 25, 1
   7              		.eabi_attribute 26, 1
   8              		.eabi_attribute 30, 1
   9              		.eabi_attribute 34, 1
  10              		.eabi_attribute 18, 4
  11              		.file	"main.c"
  12              		.text
  13              	.Ltext0:
  14              		.cfi_sections	.debug_frame
  15              		.section	.text.MX_GPIO_Init,"ax",%progbits
  16              		.align	1
  17              		.arch armv7-m
  18              		.syntax unified
  19              		.thumb
  20              		.thumb_func
  21              		.fpu softvfp
  23              	MX_GPIO_Init:
  24              	.LFB66:
  25              		.file 1 "Core/Src/main.c"
   1:Core/Src/main.c **** /* USER CODE BEGIN Header */
   2:Core/Src/main.c **** /**
   3:Core/Src/main.c ****   ******************************************************************************
   4:Core/Src/main.c ****   * @file           : main.c
   5:Core/Src/main.c ****   * @brief          : Main program body
   6:Core/Src/main.c ****   ******************************************************************************
   7:Core/Src/main.c ****   * @attention
   8:Core/Src/main.c ****   *
   9:Core/Src/main.c ****   * Copyright (c) 2025 STMicroelectronics.
  10:Core/Src/main.c ****   * All rights reserved.
  11:Core/Src/main.c ****   *
  12:Core/Src/main.c ****   * This software is licensed under terms that can be found in the LICENSE file
  13:Core/Src/main.c ****   * in the root directory of this software component.
  14:Core/Src/main.c ****   * If no LICENSE file comes with this software, it is provided AS-IS.
  15:Core/Src/main.c ****   *
  16:Core/Src/main.c ****   ******************************************************************************
  17:Core/Src/main.c ****   */
  18:Core/Src/main.c **** /* USER CODE END Header */
  19:Core/Src/main.c **** /* Includes ------------------------------------------------------------------*/
  20:Core/Src/main.c **** #include "main.h"
  21:Core/Src/main.c **** 
  22:Core/Src/main.c **** /* Private includes ----------------------------------------------------------*/
  23:Core/Src/main.c **** /* USER CODE BEGIN Includes */
  24:Core/Src/main.c **** 
  25:Core/Src/main.c **** #include "ssd1306.h"
  26:Core/Src/main.c **** #include "ssd1306_tests.h"
  27:Core/Src/main.c **** #include "ssd1306_fonts.h"
  28:Core/Src/main.c **** 
  29:Core/Src/main.c **** /* USER CODE END Includes */
  30:Core/Src/main.c **** 
  31:Core/Src/main.c **** /* Private typedef -----------------------------------------------------------*/
  32:Core/Src/main.c **** /* USER CODE BEGIN PTD */
  33:Core/Src/main.c **** 
ARM GAS  /tmp/cczqctZk.s 			page 2


  34:Core/Src/main.c **** /* USER CODE END PTD */
  35:Core/Src/main.c **** 
  36:Core/Src/main.c **** /* Private define ------------------------------------------------------------*/
  37:Core/Src/main.c **** /* USER CODE BEGIN PD */
  38:Core/Src/main.c **** 
  39:Core/Src/main.c **** /* USER CODE END PD */
  40:Core/Src/main.c **** 
  41:Core/Src/main.c **** /* Private macro -------------------------------------------------------------*/
  42:Core/Src/main.c **** /* USER CODE BEGIN PM */
  43:Core/Src/main.c **** 
  44:Core/Src/main.c **** /* USER CODE END PM */
  45:Core/Src/main.c **** 
  46:Core/Src/main.c **** /* Private variables ---------------------------------------------------------*/
  47:Core/Src/main.c **** I2C_HandleTypeDef hi2c1;
  48:Core/Src/main.c **** 
  49:Core/Src/main.c **** /* USER CODE BEGIN PV */
  50:Core/Src/main.c **** 
  51:Core/Src/main.c **** /* USER CODE END PV */
  52:Core/Src/main.c **** 
  53:Core/Src/main.c **** /* Private function prototypes -----------------------------------------------*/
  54:Core/Src/main.c **** void SystemClock_Config(void);
  55:Core/Src/main.c **** static void MX_GPIO_Init(void);
  56:Core/Src/main.c **** static void MX_I2C1_Init(void);
  57:Core/Src/main.c **** /* USER CODE BEGIN PFP */
  58:Core/Src/main.c **** 
  59:Core/Src/main.c **** /* USER CODE END PFP */
  60:Core/Src/main.c **** 
  61:Core/Src/main.c **** /* Private user code ---------------------------------------------------------*/
  62:Core/Src/main.c **** /* USER CODE BEGIN 0 */
  63:Core/Src/main.c **** 
  64:Core/Src/main.c **** /* USER CODE END 0 */
  65:Core/Src/main.c **** 
  66:Core/Src/main.c **** /**
  67:Core/Src/main.c ****   * @brief  The application entry point.
  68:Core/Src/main.c ****   * @retval int
  69:Core/Src/main.c ****   */
  70:Core/Src/main.c **** int main(void)
  71:Core/Src/main.c **** {
  72:Core/Src/main.c **** 
  73:Core/Src/main.c ****   /* USER CODE BEGIN 1 */
  74:Core/Src/main.c **** 
  75:Core/Src/main.c ****   /* USER CODE END 1 */
  76:Core/Src/main.c **** 
  77:Core/Src/main.c ****   /* MCU Configuration--------------------------------------------------------*/
  78:Core/Src/main.c **** 
  79:Core/Src/main.c ****   /* Reset of all peripherals, Initializes the Flash interface and the Systick. */
  80:Core/Src/main.c ****   HAL_Init();
  81:Core/Src/main.c **** 
  82:Core/Src/main.c ****   /* USER CODE BEGIN Init */
  83:Core/Src/main.c **** 
  84:Core/Src/main.c ****   /* USER CODE END Init */
  85:Core/Src/main.c **** 
  86:Core/Src/main.c ****   /* Configure the system clock */
  87:Core/Src/main.c ****   SystemClock_Config();
  88:Core/Src/main.c **** 
  89:Core/Src/main.c ****   /* USER CODE BEGIN SysInit */
  90:Core/Src/main.c **** 
ARM GAS  /tmp/cczqctZk.s 			page 3


  91:Core/Src/main.c ****   /* USER CODE END SysInit */
  92:Core/Src/main.c **** 
  93:Core/Src/main.c ****   /* Initialize all configured peripherals */
  94:Core/Src/main.c ****   MX_GPIO_Init();
  95:Core/Src/main.c ****   MX_I2C1_Init();
  96:Core/Src/main.c ****   /* USER CODE BEGIN 2 */
  97:Core/Src/main.c ****   ssd1306_Init();
  98:Core/Src/main.c ****   /* USER CODE END 2 */
  99:Core/Src/main.c **** 
 100:Core/Src/main.c ****   /* Infinite loop */
 101:Core/Src/main.c ****   /* USER CODE BEGIN WHILE */
 102:Core/Src/main.c ****   while (1)
 103:Core/Src/main.c ****   {
 104:Core/Src/main.c ****     /* USER CODE END WHILE */
 105:Core/Src/main.c ****     ssd1306_TestAll();
 106:Core/Src/main.c ****     /* USER CODE BEGIN 3 */
 107:Core/Src/main.c ****   }
 108:Core/Src/main.c ****   /* USER CODE END 3 */
 109:Core/Src/main.c **** }
 110:Core/Src/main.c **** 
 111:Core/Src/main.c **** /**
 112:Core/Src/main.c ****   * @brief System Clock Configuration
 113:Core/Src/main.c ****   * @retval None
 114:Core/Src/main.c ****   */
 115:Core/Src/main.c **** void SystemClock_Config(void)
 116:Core/Src/main.c **** {
 117:Core/Src/main.c ****   RCC_OscInitTypeDef RCC_OscInitStruct = {0};
 118:Core/Src/main.c ****   RCC_ClkInitTypeDef RCC_ClkInitStruct = {0};
 119:Core/Src/main.c **** 
 120:Core/Src/main.c ****   /** Initializes the RCC Oscillators according to the specified parameters
 121:Core/Src/main.c ****   * in the RCC_OscInitTypeDef structure.
 122:Core/Src/main.c ****   */
 123:Core/Src/main.c ****   RCC_OscInitStruct.OscillatorType = RCC_OSCILLATORTYPE_HSE;
 124:Core/Src/main.c ****   RCC_OscInitStruct.HSEState = RCC_HSE_ON;
 125:Core/Src/main.c ****   RCC_OscInitStruct.HSEPredivValue = RCC_HSE_PREDIV_DIV1;
 126:Core/Src/main.c ****   RCC_OscInitStruct.HSIState = RCC_HSI_ON;
 127:Core/Src/main.c ****   RCC_OscInitStruct.PLL.PLLState = RCC_PLL_ON;
 128:Core/Src/main.c ****   RCC_OscInitStruct.PLL.PLLSource = RCC_PLLSOURCE_HSE;
 129:Core/Src/main.c ****   RCC_OscInitStruct.PLL.PLLMUL = RCC_PLL_MUL9;
 130:Core/Src/main.c ****   if (HAL_RCC_OscConfig(&RCC_OscInitStruct) != HAL_OK)
 131:Core/Src/main.c ****   {
 132:Core/Src/main.c ****     Error_Handler();
 133:Core/Src/main.c ****   }
 134:Core/Src/main.c **** 
 135:Core/Src/main.c ****   /** Initializes the CPU, AHB and APB buses clocks
 136:Core/Src/main.c ****   */
 137:Core/Src/main.c ****   RCC_ClkInitStruct.ClockType = RCC_CLOCKTYPE_HCLK|RCC_CLOCKTYPE_SYSCLK
 138:Core/Src/main.c ****                               |RCC_CLOCKTYPE_PCLK1|RCC_CLOCKTYPE_PCLK2;
 139:Core/Src/main.c ****   RCC_ClkInitStruct.SYSCLKSource = RCC_SYSCLKSOURCE_PLLCLK;
 140:Core/Src/main.c ****   RCC_ClkInitStruct.AHBCLKDivider = RCC_SYSCLK_DIV1;
 141:Core/Src/main.c ****   RCC_ClkInitStruct.APB1CLKDivider = RCC_HCLK_DIV2;
 142:Core/Src/main.c ****   RCC_ClkInitStruct.APB2CLKDivider = RCC_HCLK_DIV1;
 143:Core/Src/main.c **** 
 144:Core/Src/main.c ****   if (HAL_RCC_ClockConfig(&RCC_ClkInitStruct, FLASH_LATENCY_2) != HAL_OK)
 145:Core/Src/main.c ****   {
 146:Core/Src/main.c ****     Error_Handler();
 147:Core/Src/main.c ****   }
ARM GAS  /tmp/cczqctZk.s 			page 4


 148:Core/Src/main.c **** }
 149:Core/Src/main.c **** 
 150:Core/Src/main.c **** /**
 151:Core/Src/main.c ****   * @brief I2C1 Initialization Function
 152:Core/Src/main.c ****   * @param None
 153:Core/Src/main.c ****   * @retval None
 154:Core/Src/main.c ****   */
 155:Core/Src/main.c **** static void MX_I2C1_Init(void)
 156:Core/Src/main.c **** {
 157:Core/Src/main.c **** 
 158:Core/Src/main.c ****   /* USER CODE BEGIN I2C1_Init 0 */
 159:Core/Src/main.c **** 
 160:Core/Src/main.c ****   /* USER CODE END I2C1_Init 0 */
 161:Core/Src/main.c **** 
 162:Core/Src/main.c ****   /* USER CODE BEGIN I2C1_Init 1 */
 163:Core/Src/main.c **** 
 164:Core/Src/main.c ****   /* USER CODE END I2C1_Init 1 */
 165:Core/Src/main.c ****   hi2c1.Instance = I2C1;
 166:Core/Src/main.c ****   hi2c1.Init.ClockSpeed = 400000;
 167:Core/Src/main.c ****   hi2c1.Init.DutyCycle = I2C_DUTYCYCLE_2;
 168:Core/Src/main.c ****   hi2c1.Init.OwnAddress1 = 0;
 169:Core/Src/main.c ****   hi2c1.Init.AddressingMode = I2C_ADDRESSINGMODE_7BIT;
 170:Core/Src/main.c ****   hi2c1.Init.DualAddressMode = I2C_DUALADDRESS_DISABLE;
 171:Core/Src/main.c ****   hi2c1.Init.OwnAddress2 = 0;
 172:Core/Src/main.c ****   hi2c1.Init.GeneralCallMode = I2C_GENERALCALL_DISABLE;
 173:Core/Src/main.c ****   hi2c1.Init.NoStretchMode = I2C_NOSTRETCH_DISABLE;
 174:Core/Src/main.c ****   if (HAL_I2C_Init(&hi2c1) != HAL_OK)
 175:Core/Src/main.c ****   {
 176:Core/Src/main.c ****     Error_Handler();
 177:Core/Src/main.c ****   }
 178:Core/Src/main.c ****   /* USER CODE BEGIN I2C1_Init 2 */
 179:Core/Src/main.c **** 
 180:Core/Src/main.c ****   /* USER CODE END I2C1_Init 2 */
 181:Core/Src/main.c **** 
 182:Core/Src/main.c **** }
 183:Core/Src/main.c **** 
 184:Core/Src/main.c **** /**
 185:Core/Src/main.c ****   * @brief GPIO Initialization Function
 186:Core/Src/main.c ****   * @param None
 187:Core/Src/main.c ****   * @retval None
 188:Core/Src/main.c ****   */
 189:Core/Src/main.c **** static void MX_GPIO_Init(void)
 190:Core/Src/main.c **** {
  26              		.loc 1 190 1 view -0
  27              		.cfi_startproc
  28              		@ args = 0, pretend = 0, frame = 16
  29              		@ frame_needed = 0, uses_anonymous_args = 0
  30              		@ link register save eliminated.
  31 0000 84B0     		sub	sp, sp, #16
  32              	.LCFI0:
  33              		.cfi_def_cfa_offset 16
 191:Core/Src/main.c **** /* USER CODE BEGIN MX_GPIO_Init_1 */
 192:Core/Src/main.c **** /* USER CODE END MX_GPIO_Init_1 */
 193:Core/Src/main.c **** 
 194:Core/Src/main.c ****   /* GPIO Ports Clock Enable */
 195:Core/Src/main.c ****   __HAL_RCC_GPIOD_CLK_ENABLE();
  34              		.loc 1 195 3 view .LVU1
ARM GAS  /tmp/cczqctZk.s 			page 5


  35              	.LBB4:
  36              		.loc 1 195 3 view .LVU2
  37              		.loc 1 195 3 view .LVU3
  38 0002 0F4B     		ldr	r3, .L3
  39 0004 9A69     		ldr	r2, [r3, #24]
  40 0006 42F02002 		orr	r2, r2, #32
  41 000a 9A61     		str	r2, [r3, #24]
  42              		.loc 1 195 3 view .LVU4
  43 000c 9A69     		ldr	r2, [r3, #24]
  44 000e 02F02002 		and	r2, r2, #32
  45 0012 0192     		str	r2, [sp, #4]
  46              		.loc 1 195 3 view .LVU5
  47 0014 019A     		ldr	r2, [sp, #4]
  48              	.LBE4:
  49              		.loc 1 195 3 view .LVU6
 196:Core/Src/main.c ****   __HAL_RCC_GPIOA_CLK_ENABLE();
  50              		.loc 1 196 3 view .LVU7
  51              	.LBB5:
  52              		.loc 1 196 3 view .LVU8
  53              		.loc 1 196 3 view .LVU9
  54 0016 9A69     		ldr	r2, [r3, #24]
  55 0018 42F00402 		orr	r2, r2, #4
  56 001c 9A61     		str	r2, [r3, #24]
  57              		.loc 1 196 3 view .LVU10
  58 001e 9A69     		ldr	r2, [r3, #24]
  59 0020 02F00402 		and	r2, r2, #4
  60 0024 0292     		str	r2, [sp, #8]
  61              		.loc 1 196 3 view .LVU11
  62 0026 029A     		ldr	r2, [sp, #8]
  63              	.LBE5:
  64              		.loc 1 196 3 view .LVU12
 197:Core/Src/main.c ****   __HAL_RCC_GPIOB_CLK_ENABLE();
  65              		.loc 1 197 3 view .LVU13
  66              	.LBB6:
  67              		.loc 1 197 3 view .LVU14
  68              		.loc 1 197 3 view .LVU15
  69 0028 9A69     		ldr	r2, [r3, #24]
  70 002a 42F00802 		orr	r2, r2, #8
  71 002e 9A61     		str	r2, [r3, #24]
  72              		.loc 1 197 3 view .LVU16
  73 0030 9B69     		ldr	r3, [r3, #24]
  74 0032 03F00803 		and	r3, r3, #8
  75 0036 0393     		str	r3, [sp, #12]
  76              		.loc 1 197 3 view .LVU17
  77 0038 039B     		ldr	r3, [sp, #12]
  78              	.LBE6:
  79              		.loc 1 197 3 view .LVU18
 198:Core/Src/main.c **** 
 199:Core/Src/main.c **** /* USER CODE BEGIN MX_GPIO_Init_2 */
 200:Core/Src/main.c **** /* USER CODE END MX_GPIO_Init_2 */
 201:Core/Src/main.c **** }
  80              		.loc 1 201 1 is_stmt 0 view .LVU19
  81 003a 04B0     		add	sp, sp, #16
  82              	.LCFI1:
  83              		.cfi_def_cfa_offset 0
  84              		@ sp needed
  85 003c 7047     		bx	lr
ARM GAS  /tmp/cczqctZk.s 			page 6


  86              	.L4:
  87 003e 00BF     		.align	2
  88              	.L3:
  89 0040 00100240 		.word	1073876992
  90              		.cfi_endproc
  91              	.LFE66:
  93              		.section	.text.Error_Handler,"ax",%progbits
  94              		.align	1
  95              		.global	Error_Handler
  96              		.syntax unified
  97              		.thumb
  98              		.thumb_func
  99              		.fpu softvfp
 101              	Error_Handler:
 102              	.LFB67:
 202:Core/Src/main.c **** 
 203:Core/Src/main.c **** /* USER CODE BEGIN 4 */
 204:Core/Src/main.c **** 
 205:Core/Src/main.c **** /* USER CODE END 4 */
 206:Core/Src/main.c **** 
 207:Core/Src/main.c **** /**
 208:Core/Src/main.c ****   * @brief  This function is executed in case of error occurrence.
 209:Core/Src/main.c ****   * @retval None
 210:Core/Src/main.c ****   */
 211:Core/Src/main.c **** void Error_Handler(void)
 212:Core/Src/main.c **** {
 103              		.loc 1 212 1 is_stmt 1 view -0
 104              		.cfi_startproc
 105              		@ Volatile: function does not return.
 106              		@ args = 0, pretend = 0, frame = 0
 107              		@ frame_needed = 0, uses_anonymous_args = 0
 108              		@ link register save eliminated.
 213:Core/Src/main.c ****   /* USER CODE BEGIN Error_Handler_Debug */
 214:Core/Src/main.c ****   /* User can add his own implementation to report the HAL error return state */
 215:Core/Src/main.c ****   __disable_irq();
 109              		.loc 1 215 3 view .LVU21
 110              	.LBB7:
 111              	.LBI7:
 112              		.file 2 "Drivers/CMSIS/Device/ST/STM32F1xx/Include/cmsis_gcc.h"
   1:Drivers/CMSIS/Device/ST/STM32F1xx/Include/cmsis_gcc.h **** /**************************************************************************//**
   2:Drivers/CMSIS/Device/ST/STM32F1xx/Include/cmsis_gcc.h ****  * @file     cmsis_gcc.h
   3:Drivers/CMSIS/Device/ST/STM32F1xx/Include/cmsis_gcc.h ****  * @brief    CMSIS Cortex-M Core Function/Instruction Header File
   4:Drivers/CMSIS/Device/ST/STM32F1xx/Include/cmsis_gcc.h ****  * @version  V4.30
   5:Drivers/CMSIS/Device/ST/STM32F1xx/Include/cmsis_gcc.h ****  * @date     20. October 2015
   6:Drivers/CMSIS/Device/ST/STM32F1xx/Include/cmsis_gcc.h ****  ******************************************************************************/
   7:Drivers/CMSIS/Device/ST/STM32F1xx/Include/cmsis_gcc.h **** /* Copyright (c) 2009 - 2015 ARM LIMITED
   8:Drivers/CMSIS/Device/ST/STM32F1xx/Include/cmsis_gcc.h **** 
   9:Drivers/CMSIS/Device/ST/STM32F1xx/Include/cmsis_gcc.h ****    All rights reserved.
  10:Drivers/CMSIS/Device/ST/STM32F1xx/Include/cmsis_gcc.h ****    Redistribution and use in source and binary forms, with or without
  11:Drivers/CMSIS/Device/ST/STM32F1xx/Include/cmsis_gcc.h ****    modification, are permitted provided that the following conditions are met:
  12:Drivers/CMSIS/Device/ST/STM32F1xx/Include/cmsis_gcc.h ****    - Redistributions of source code must retain the above copyright
  13:Drivers/CMSIS/Device/ST/STM32F1xx/Include/cmsis_gcc.h ****      notice, this list of conditions and the following disclaimer.
  14:Drivers/CMSIS/Device/ST/STM32F1xx/Include/cmsis_gcc.h ****    - Redistributions in binary form must reproduce the above copyright
  15:Drivers/CMSIS/Device/ST/STM32F1xx/Include/cmsis_gcc.h ****      notice, this list of conditions and the following disclaimer in the
  16:Drivers/CMSIS/Device/ST/STM32F1xx/Include/cmsis_gcc.h ****      documentation and/or other materials provided with the distribution.
  17:Drivers/CMSIS/Device/ST/STM32F1xx/Include/cmsis_gcc.h ****    - Neither the name of ARM nor the names of its contributors may be used
  18:Drivers/CMSIS/Device/ST/STM32F1xx/Include/cmsis_gcc.h ****      to endorse or promote products derived from this software without
ARM GAS  /tmp/cczqctZk.s 			page 7


  19:Drivers/CMSIS/Device/ST/STM32F1xx/Include/cmsis_gcc.h ****      specific prior written permission.
  20:Drivers/CMSIS/Device/ST/STM32F1xx/Include/cmsis_gcc.h ****    *
  21:Drivers/CMSIS/Device/ST/STM32F1xx/Include/cmsis_gcc.h ****    THIS SOFTWARE IS PROVIDED BY THE COPYRIGHT HOLDERS AND CONTRIBUTORS "AS IS"
  22:Drivers/CMSIS/Device/ST/STM32F1xx/Include/cmsis_gcc.h ****    AND ANY EXPRESS OR IMPLIED WARRANTIES, INCLUDING, BUT NOT LIMITED TO, THE
  23:Drivers/CMSIS/Device/ST/STM32F1xx/Include/cmsis_gcc.h ****    IMPLIED WARRANTIES OF MERCHANTABILITY AND FITNESS FOR A PARTICULAR PURPOSE
  24:Drivers/CMSIS/Device/ST/STM32F1xx/Include/cmsis_gcc.h ****    ARE DISCLAIMED. IN NO EVENT SHALL COPYRIGHT HOLDERS AND CONTRIBUTORS BE
  25:Drivers/CMSIS/Device/ST/STM32F1xx/Include/cmsis_gcc.h ****    LIABLE FOR ANY DIRECT, INDIRECT, INCIDENTAL, SPECIAL, EXEMPLARY, OR
  26:Drivers/CMSIS/Device/ST/STM32F1xx/Include/cmsis_gcc.h ****    CONSEQUENTIAL DAMAGES (INCLUDING, BUT NOT LIMITED TO, PROCUREMENT OF
  27:Drivers/CMSIS/Device/ST/STM32F1xx/Include/cmsis_gcc.h ****    SUBSTITUTE GOODS OR SERVICES; LOSS OF USE, DATA, OR PROFITS; OR BUSINESS
  28:Drivers/CMSIS/Device/ST/STM32F1xx/Include/cmsis_gcc.h ****    INTERRUPTION) HOWEVER CAUSED AND ON ANY THEORY OF LIABILITY, WHETHER IN
  29:Drivers/CMSIS/Device/ST/STM32F1xx/Include/cmsis_gcc.h ****    CONTRACT, STRICT LIABILITY, OR TORT (INCLUDING NEGLIGENCE OR OTHERWISE)
  30:Drivers/CMSIS/Device/ST/STM32F1xx/Include/cmsis_gcc.h ****    ARISING IN ANY WAY OUT OF THE USE OF THIS SOFTWARE, EVEN IF ADVISED OF THE
  31:Drivers/CMSIS/Device/ST/STM32F1xx/Include/cmsis_gcc.h ****    POSSIBILITY OF SUCH DAMAGE.
  32:Drivers/CMSIS/Device/ST/STM32F1xx/Include/cmsis_gcc.h ****    ---------------------------------------------------------------------------*/
  33:Drivers/CMSIS/Device/ST/STM32F1xx/Include/cmsis_gcc.h **** 
  34:Drivers/CMSIS/Device/ST/STM32F1xx/Include/cmsis_gcc.h **** 
  35:Drivers/CMSIS/Device/ST/STM32F1xx/Include/cmsis_gcc.h **** #ifndef __CMSIS_GCC_H
  36:Drivers/CMSIS/Device/ST/STM32F1xx/Include/cmsis_gcc.h **** #define __CMSIS_GCC_H
  37:Drivers/CMSIS/Device/ST/STM32F1xx/Include/cmsis_gcc.h **** 
  38:Drivers/CMSIS/Device/ST/STM32F1xx/Include/cmsis_gcc.h **** /* ignore some GCC warnings */
  39:Drivers/CMSIS/Device/ST/STM32F1xx/Include/cmsis_gcc.h **** #if defined ( __GNUC__ )
  40:Drivers/CMSIS/Device/ST/STM32F1xx/Include/cmsis_gcc.h **** #pragma GCC diagnostic push
  41:Drivers/CMSIS/Device/ST/STM32F1xx/Include/cmsis_gcc.h **** #pragma GCC diagnostic ignored "-Wsign-conversion"
  42:Drivers/CMSIS/Device/ST/STM32F1xx/Include/cmsis_gcc.h **** #pragma GCC diagnostic ignored "-Wconversion"
  43:Drivers/CMSIS/Device/ST/STM32F1xx/Include/cmsis_gcc.h **** #pragma GCC diagnostic ignored "-Wunused-parameter"
  44:Drivers/CMSIS/Device/ST/STM32F1xx/Include/cmsis_gcc.h **** #endif
  45:Drivers/CMSIS/Device/ST/STM32F1xx/Include/cmsis_gcc.h **** 
  46:Drivers/CMSIS/Device/ST/STM32F1xx/Include/cmsis_gcc.h **** 
  47:Drivers/CMSIS/Device/ST/STM32F1xx/Include/cmsis_gcc.h **** /* ###########################  Core Function Access  ########################### */
  48:Drivers/CMSIS/Device/ST/STM32F1xx/Include/cmsis_gcc.h **** /** \ingroup  CMSIS_Core_FunctionInterface
  49:Drivers/CMSIS/Device/ST/STM32F1xx/Include/cmsis_gcc.h ****     \defgroup CMSIS_Core_RegAccFunctions CMSIS Core Register Access Functions
  50:Drivers/CMSIS/Device/ST/STM32F1xx/Include/cmsis_gcc.h ****   @{
  51:Drivers/CMSIS/Device/ST/STM32F1xx/Include/cmsis_gcc.h ****  */
  52:Drivers/CMSIS/Device/ST/STM32F1xx/Include/cmsis_gcc.h **** 
  53:Drivers/CMSIS/Device/ST/STM32F1xx/Include/cmsis_gcc.h **** /**
  54:Drivers/CMSIS/Device/ST/STM32F1xx/Include/cmsis_gcc.h ****   \brief   Enable IRQ Interrupts
  55:Drivers/CMSIS/Device/ST/STM32F1xx/Include/cmsis_gcc.h ****   \details Enables IRQ interrupts by clearing the I-bit in the CPSR.
  56:Drivers/CMSIS/Device/ST/STM32F1xx/Include/cmsis_gcc.h ****            Can only be executed in Privileged modes.
  57:Drivers/CMSIS/Device/ST/STM32F1xx/Include/cmsis_gcc.h ****  */
  58:Drivers/CMSIS/Device/ST/STM32F1xx/Include/cmsis_gcc.h **** __attribute__( ( always_inline ) ) __STATIC_INLINE void __enable_irq(void)
  59:Drivers/CMSIS/Device/ST/STM32F1xx/Include/cmsis_gcc.h **** {
  60:Drivers/CMSIS/Device/ST/STM32F1xx/Include/cmsis_gcc.h ****   __ASM volatile ("cpsie i" : : : "memory");
  61:Drivers/CMSIS/Device/ST/STM32F1xx/Include/cmsis_gcc.h **** }
  62:Drivers/CMSIS/Device/ST/STM32F1xx/Include/cmsis_gcc.h **** 
  63:Drivers/CMSIS/Device/ST/STM32F1xx/Include/cmsis_gcc.h **** 
  64:Drivers/CMSIS/Device/ST/STM32F1xx/Include/cmsis_gcc.h **** /**
  65:Drivers/CMSIS/Device/ST/STM32F1xx/Include/cmsis_gcc.h ****   \brief   Disable IRQ Interrupts
  66:Drivers/CMSIS/Device/ST/STM32F1xx/Include/cmsis_gcc.h ****   \details Disables IRQ interrupts by setting the I-bit in the CPSR.
  67:Drivers/CMSIS/Device/ST/STM32F1xx/Include/cmsis_gcc.h ****   Can only be executed in Privileged modes.
  68:Drivers/CMSIS/Device/ST/STM32F1xx/Include/cmsis_gcc.h ****  */
  69:Drivers/CMSIS/Device/ST/STM32F1xx/Include/cmsis_gcc.h **** __attribute__( ( always_inline ) ) __STATIC_INLINE void __disable_irq(void)
 113              		.loc 2 69 57 view .LVU22
 114              	.LBB8:
  70:Drivers/CMSIS/Device/ST/STM32F1xx/Include/cmsis_gcc.h **** {
  71:Drivers/CMSIS/Device/ST/STM32F1xx/Include/cmsis_gcc.h ****   __ASM volatile ("cpsid i" : : : "memory");
 115              		.loc 2 71 3 view .LVU23
 116              		.syntax unified
ARM GAS  /tmp/cczqctZk.s 			page 8


 117              	@ 71 "Drivers/CMSIS/Device/ST/STM32F1xx/Include/cmsis_gcc.h" 1
 118 0000 72B6     		cpsid i
 119              	@ 0 "" 2
 120              		.thumb
 121              		.syntax unified
 122              	.L6:
 123              	.LBE8:
 124              	.LBE7:
 216:Core/Src/main.c ****   while (1)
 125              		.loc 1 216 3 discriminator 1 view .LVU24
 217:Core/Src/main.c ****   {
 218:Core/Src/main.c ****   }
 126              		.loc 1 218 3 discriminator 1 view .LVU25
 216:Core/Src/main.c ****   while (1)
 127              		.loc 1 216 9 discriminator 1 view .LVU26
 128 0002 FEE7     		b	.L6
 129              		.cfi_endproc
 130              	.LFE67:
 132              		.section	.text.MX_I2C1_Init,"ax",%progbits
 133              		.align	1
 134              		.syntax unified
 135              		.thumb
 136              		.thumb_func
 137              		.fpu softvfp
 139              	MX_I2C1_Init:
 140              	.LFB65:
 156:Core/Src/main.c **** 
 141              		.loc 1 156 1 view -0
 142              		.cfi_startproc
 143              		@ args = 0, pretend = 0, frame = 0
 144              		@ frame_needed = 0, uses_anonymous_args = 0
 145 0000 08B5     		push	{r3, lr}
 146              	.LCFI2:
 147              		.cfi_def_cfa_offset 8
 148              		.cfi_offset 3, -8
 149              		.cfi_offset 14, -4
 165:Core/Src/main.c ****   hi2c1.Init.ClockSpeed = 400000;
 150              		.loc 1 165 3 view .LVU28
 165:Core/Src/main.c ****   hi2c1.Init.ClockSpeed = 400000;
 151              		.loc 1 165 18 is_stmt 0 view .LVU29
 152 0002 0A48     		ldr	r0, .L11
 153 0004 0A4B     		ldr	r3, .L11+4
 154 0006 0360     		str	r3, [r0]
 166:Core/Src/main.c ****   hi2c1.Init.DutyCycle = I2C_DUTYCYCLE_2;
 155              		.loc 1 166 3 is_stmt 1 view .LVU30
 166:Core/Src/main.c ****   hi2c1.Init.DutyCycle = I2C_DUTYCYCLE_2;
 156              		.loc 1 166 25 is_stmt 0 view .LVU31
 157 0008 0A4B     		ldr	r3, .L11+8
 158 000a 4360     		str	r3, [r0, #4]
 167:Core/Src/main.c ****   hi2c1.Init.OwnAddress1 = 0;
 159              		.loc 1 167 3 is_stmt 1 view .LVU32
 167:Core/Src/main.c ****   hi2c1.Init.OwnAddress1 = 0;
 160              		.loc 1 167 24 is_stmt 0 view .LVU33
 161 000c 0023     		movs	r3, #0
 162 000e 8360     		str	r3, [r0, #8]
 168:Core/Src/main.c ****   hi2c1.Init.AddressingMode = I2C_ADDRESSINGMODE_7BIT;
 163              		.loc 1 168 3 is_stmt 1 view .LVU34
ARM GAS  /tmp/cczqctZk.s 			page 9


 168:Core/Src/main.c ****   hi2c1.Init.AddressingMode = I2C_ADDRESSINGMODE_7BIT;
 164              		.loc 1 168 26 is_stmt 0 view .LVU35
 165 0010 C360     		str	r3, [r0, #12]
 169:Core/Src/main.c ****   hi2c1.Init.DualAddressMode = I2C_DUALADDRESS_DISABLE;
 166              		.loc 1 169 3 is_stmt 1 view .LVU36
 169:Core/Src/main.c ****   hi2c1.Init.DualAddressMode = I2C_DUALADDRESS_DISABLE;
 167              		.loc 1 169 29 is_stmt 0 view .LVU37
 168 0012 4FF48042 		mov	r2, #16384
 169 0016 0261     		str	r2, [r0, #16]
 170:Core/Src/main.c ****   hi2c1.Init.OwnAddress2 = 0;
 170              		.loc 1 170 3 is_stmt 1 view .LVU38
 170:Core/Src/main.c ****   hi2c1.Init.OwnAddress2 = 0;
 171              		.loc 1 170 30 is_stmt 0 view .LVU39
 172 0018 4361     		str	r3, [r0, #20]
 171:Core/Src/main.c ****   hi2c1.Init.GeneralCallMode = I2C_GENERALCALL_DISABLE;
 173              		.loc 1 171 3 is_stmt 1 view .LVU40
 171:Core/Src/main.c ****   hi2c1.Init.GeneralCallMode = I2C_GENERALCALL_DISABLE;
 174              		.loc 1 171 26 is_stmt 0 view .LVU41
 175 001a 8361     		str	r3, [r0, #24]
 172:Core/Src/main.c ****   hi2c1.Init.NoStretchMode = I2C_NOSTRETCH_DISABLE;
 176              		.loc 1 172 3 is_stmt 1 view .LVU42
 172:Core/Src/main.c ****   hi2c1.Init.NoStretchMode = I2C_NOSTRETCH_DISABLE;
 177              		.loc 1 172 30 is_stmt 0 view .LVU43
 178 001c C361     		str	r3, [r0, #28]
 173:Core/Src/main.c ****   if (HAL_I2C_Init(&hi2c1) != HAL_OK)
 179              		.loc 1 173 3 is_stmt 1 view .LVU44
 173:Core/Src/main.c ****   if (HAL_I2C_Init(&hi2c1) != HAL_OK)
 180              		.loc 1 173 28 is_stmt 0 view .LVU45
 181 001e 0362     		str	r3, [r0, #32]
 174:Core/Src/main.c ****   {
 182              		.loc 1 174 3 is_stmt 1 view .LVU46
 174:Core/Src/main.c ****   {
 183              		.loc 1 174 7 is_stmt 0 view .LVU47
 184 0020 FFF7FEFF 		bl	HAL_I2C_Init
 185              	.LVL0:
 174:Core/Src/main.c ****   {
 186              		.loc 1 174 6 view .LVU48
 187 0024 00B9     		cbnz	r0, .L10
 182:Core/Src/main.c **** 
 188              		.loc 1 182 1 view .LVU49
 189 0026 08BD     		pop	{r3, pc}
 190              	.L10:
 176:Core/Src/main.c ****   }
 191              		.loc 1 176 5 is_stmt 1 view .LVU50
 192 0028 FFF7FEFF 		bl	Error_Handler
 193              	.LVL1:
 194              	.L12:
 195              		.align	2
 196              	.L11:
 197 002c 00000000 		.word	.LANCHOR0
 198 0030 00540040 		.word	1073763328
 199 0034 801A0600 		.word	400000
 200              		.cfi_endproc
 201              	.LFE65:
 203              		.section	.text.SystemClock_Config,"ax",%progbits
 204              		.align	1
 205              		.global	SystemClock_Config
ARM GAS  /tmp/cczqctZk.s 			page 10


 206              		.syntax unified
 207              		.thumb
 208              		.thumb_func
 209              		.fpu softvfp
 211              	SystemClock_Config:
 212              	.LFB64:
 116:Core/Src/main.c ****   RCC_OscInitTypeDef RCC_OscInitStruct = {0};
 213              		.loc 1 116 1 view -0
 214              		.cfi_startproc
 215              		@ args = 0, pretend = 0, frame = 64
 216              		@ frame_needed = 0, uses_anonymous_args = 0
 217 0000 00B5     		push	{lr}
 218              	.LCFI3:
 219              		.cfi_def_cfa_offset 4
 220              		.cfi_offset 14, -4
 221 0002 91B0     		sub	sp, sp, #68
 222              	.LCFI4:
 223              		.cfi_def_cfa_offset 72
 117:Core/Src/main.c ****   RCC_ClkInitTypeDef RCC_ClkInitStruct = {0};
 224              		.loc 1 117 3 view .LVU52
 117:Core/Src/main.c ****   RCC_ClkInitTypeDef RCC_ClkInitStruct = {0};
 225              		.loc 1 117 22 is_stmt 0 view .LVU53
 226 0004 2822     		movs	r2, #40
 227 0006 0021     		movs	r1, #0
 228 0008 06A8     		add	r0, sp, #24
 229 000a FFF7FEFF 		bl	memset
 230              	.LVL2:
 118:Core/Src/main.c **** 
 231              		.loc 1 118 3 is_stmt 1 view .LVU54
 118:Core/Src/main.c **** 
 232              		.loc 1 118 22 is_stmt 0 view .LVU55
 233 000e 0023     		movs	r3, #0
 234 0010 0193     		str	r3, [sp, #4]
 235 0012 0293     		str	r3, [sp, #8]
 236 0014 0393     		str	r3, [sp, #12]
 237 0016 0493     		str	r3, [sp, #16]
 238 0018 0593     		str	r3, [sp, #20]
 123:Core/Src/main.c ****   RCC_OscInitStruct.HSEState = RCC_HSE_ON;
 239              		.loc 1 123 3 is_stmt 1 view .LVU56
 123:Core/Src/main.c ****   RCC_OscInitStruct.HSEState = RCC_HSE_ON;
 240              		.loc 1 123 36 is_stmt 0 view .LVU57
 241 001a 0122     		movs	r2, #1
 242 001c 0692     		str	r2, [sp, #24]
 124:Core/Src/main.c ****   RCC_OscInitStruct.HSEPredivValue = RCC_HSE_PREDIV_DIV1;
 243              		.loc 1 124 3 is_stmt 1 view .LVU58
 124:Core/Src/main.c ****   RCC_OscInitStruct.HSEPredivValue = RCC_HSE_PREDIV_DIV1;
 244              		.loc 1 124 30 is_stmt 0 view .LVU59
 245 001e 4FF48033 		mov	r3, #65536
 246 0022 0793     		str	r3, [sp, #28]
 125:Core/Src/main.c ****   RCC_OscInitStruct.HSIState = RCC_HSI_ON;
 247              		.loc 1 125 3 is_stmt 1 view .LVU60
 126:Core/Src/main.c ****   RCC_OscInitStruct.PLL.PLLState = RCC_PLL_ON;
 248              		.loc 1 126 3 view .LVU61
 126:Core/Src/main.c ****   RCC_OscInitStruct.PLL.PLLState = RCC_PLL_ON;
 249              		.loc 1 126 30 is_stmt 0 view .LVU62
 250 0024 0A92     		str	r2, [sp, #40]
 127:Core/Src/main.c ****   RCC_OscInitStruct.PLL.PLLSource = RCC_PLLSOURCE_HSE;
ARM GAS  /tmp/cczqctZk.s 			page 11


 251              		.loc 1 127 3 is_stmt 1 view .LVU63
 127:Core/Src/main.c ****   RCC_OscInitStruct.PLL.PLLSource = RCC_PLLSOURCE_HSE;
 252              		.loc 1 127 34 is_stmt 0 view .LVU64
 253 0026 0222     		movs	r2, #2
 254 0028 0D92     		str	r2, [sp, #52]
 128:Core/Src/main.c ****   RCC_OscInitStruct.PLL.PLLMUL = RCC_PLL_MUL9;
 255              		.loc 1 128 3 is_stmt 1 view .LVU65
 128:Core/Src/main.c ****   RCC_OscInitStruct.PLL.PLLMUL = RCC_PLL_MUL9;
 256              		.loc 1 128 35 is_stmt 0 view .LVU66
 257 002a 0E93     		str	r3, [sp, #56]
 129:Core/Src/main.c ****   if (HAL_RCC_OscConfig(&RCC_OscInitStruct) != HAL_OK)
 258              		.loc 1 129 3 is_stmt 1 view .LVU67
 129:Core/Src/main.c ****   if (HAL_RCC_OscConfig(&RCC_OscInitStruct) != HAL_OK)
 259              		.loc 1 129 32 is_stmt 0 view .LVU68
 260 002c 4FF4E013 		mov	r3, #1835008
 261 0030 0F93     		str	r3, [sp, #60]
 130:Core/Src/main.c ****   {
 262              		.loc 1 130 3 is_stmt 1 view .LVU69
 130:Core/Src/main.c ****   {
 263              		.loc 1 130 7 is_stmt 0 view .LVU70
 264 0032 06A8     		add	r0, sp, #24
 265 0034 FFF7FEFF 		bl	HAL_RCC_OscConfig
 266              	.LVL3:
 130:Core/Src/main.c ****   {
 267              		.loc 1 130 6 view .LVU71
 268 0038 80B9     		cbnz	r0, .L17
 137:Core/Src/main.c ****                               |RCC_CLOCKTYPE_PCLK1|RCC_CLOCKTYPE_PCLK2;
 269              		.loc 1 137 3 is_stmt 1 view .LVU72
 137:Core/Src/main.c ****                               |RCC_CLOCKTYPE_PCLK1|RCC_CLOCKTYPE_PCLK2;
 270              		.loc 1 137 31 is_stmt 0 view .LVU73
 271 003a 0F23     		movs	r3, #15
 272 003c 0193     		str	r3, [sp, #4]
 139:Core/Src/main.c ****   RCC_ClkInitStruct.AHBCLKDivider = RCC_SYSCLK_DIV1;
 273              		.loc 1 139 3 is_stmt 1 view .LVU74
 139:Core/Src/main.c ****   RCC_ClkInitStruct.AHBCLKDivider = RCC_SYSCLK_DIV1;
 274              		.loc 1 139 34 is_stmt 0 view .LVU75
 275 003e 0221     		movs	r1, #2
 276 0040 0291     		str	r1, [sp, #8]
 140:Core/Src/main.c ****   RCC_ClkInitStruct.APB1CLKDivider = RCC_HCLK_DIV2;
 277              		.loc 1 140 3 is_stmt 1 view .LVU76
 140:Core/Src/main.c ****   RCC_ClkInitStruct.APB1CLKDivider = RCC_HCLK_DIV2;
 278              		.loc 1 140 35 is_stmt 0 view .LVU77
 279 0042 0023     		movs	r3, #0
 280 0044 0393     		str	r3, [sp, #12]
 141:Core/Src/main.c ****   RCC_ClkInitStruct.APB2CLKDivider = RCC_HCLK_DIV1;
 281              		.loc 1 141 3 is_stmt 1 view .LVU78
 141:Core/Src/main.c ****   RCC_ClkInitStruct.APB2CLKDivider = RCC_HCLK_DIV1;
 282              		.loc 1 141 36 is_stmt 0 view .LVU79
 283 0046 4FF48062 		mov	r2, #1024
 284 004a 0492     		str	r2, [sp, #16]
 142:Core/Src/main.c **** 
 285              		.loc 1 142 3 is_stmt 1 view .LVU80
 142:Core/Src/main.c **** 
 286              		.loc 1 142 36 is_stmt 0 view .LVU81
 287 004c 0593     		str	r3, [sp, #20]
 144:Core/Src/main.c ****   {
 288              		.loc 1 144 3 is_stmt 1 view .LVU82
ARM GAS  /tmp/cczqctZk.s 			page 12


 144:Core/Src/main.c ****   {
 289              		.loc 1 144 7 is_stmt 0 view .LVU83
 290 004e 01A8     		add	r0, sp, #4
 291 0050 FFF7FEFF 		bl	HAL_RCC_ClockConfig
 292              	.LVL4:
 144:Core/Src/main.c ****   {
 293              		.loc 1 144 6 view .LVU84
 294 0054 20B9     		cbnz	r0, .L18
 148:Core/Src/main.c **** 
 295              		.loc 1 148 1 view .LVU85
 296 0056 11B0     		add	sp, sp, #68
 297              	.LCFI5:
 298              		.cfi_remember_state
 299              		.cfi_def_cfa_offset 4
 300              		@ sp needed
 301 0058 5DF804FB 		ldr	pc, [sp], #4
 302              	.L17:
 303              	.LCFI6:
 304              		.cfi_restore_state
 132:Core/Src/main.c ****   }
 305              		.loc 1 132 5 is_stmt 1 view .LVU86
 306 005c FFF7FEFF 		bl	Error_Handler
 307              	.LVL5:
 308              	.L18:
 146:Core/Src/main.c ****   }
 309              		.loc 1 146 5 view .LVU87
 310 0060 FFF7FEFF 		bl	Error_Handler
 311              	.LVL6:
 312              		.cfi_endproc
 313              	.LFE64:
 315              		.section	.text.main,"ax",%progbits
 316              		.align	1
 317              		.global	main
 318              		.syntax unified
 319              		.thumb
 320              		.thumb_func
 321              		.fpu softvfp
 323              	main:
 324              	.LFB63:
  71:Core/Src/main.c **** 
 325              		.loc 1 71 1 view -0
 326              		.cfi_startproc
 327              		@ Volatile: function does not return.
 328              		@ args = 0, pretend = 0, frame = 0
 329              		@ frame_needed = 0, uses_anonymous_args = 0
 330 0000 08B5     		push	{r3, lr}
 331              	.LCFI7:
 332              		.cfi_def_cfa_offset 8
 333              		.cfi_offset 3, -8
 334              		.cfi_offset 14, -4
  80:Core/Src/main.c **** 
 335              		.loc 1 80 3 view .LVU89
 336 0002 FFF7FEFF 		bl	HAL_Init
 337              	.LVL7:
  87:Core/Src/main.c **** 
 338              		.loc 1 87 3 view .LVU90
 339 0006 FFF7FEFF 		bl	SystemClock_Config
ARM GAS  /tmp/cczqctZk.s 			page 13


 340              	.LVL8:
  94:Core/Src/main.c ****   MX_I2C1_Init();
 341              		.loc 1 94 3 view .LVU91
 342 000a FFF7FEFF 		bl	MX_GPIO_Init
 343              	.LVL9:
  95:Core/Src/main.c ****   /* USER CODE BEGIN 2 */
 344              		.loc 1 95 3 view .LVU92
 345 000e FFF7FEFF 		bl	MX_I2C1_Init
 346              	.LVL10:
  97:Core/Src/main.c ****   /* USER CODE END 2 */
 347              		.loc 1 97 3 view .LVU93
 348 0012 FFF7FEFF 		bl	ssd1306_Init
 349              	.LVL11:
 350              	.L20:
 102:Core/Src/main.c ****   {
 351              		.loc 1 102 3 discriminator 1 view .LVU94
 105:Core/Src/main.c ****     /* USER CODE BEGIN 3 */
 352              		.loc 1 105 5 discriminator 1 view .LVU95
 353 0016 FFF7FEFF 		bl	ssd1306_TestAll
 354              	.LVL12:
 102:Core/Src/main.c ****   {
 355              		.loc 1 102 9 discriminator 1 view .LVU96
 356 001a FCE7     		b	.L20
 357              		.cfi_endproc
 358              	.LFE63:
 360              		.global	hi2c1
 361              		.section	.bss.hi2c1,"aw",%nobits
 362              		.align	2
 363              		.set	.LANCHOR0,. + 0
 366              	hi2c1:
 367 0000 00000000 		.space	84
 367      00000000 
 367      00000000 
 367      00000000 
 367      00000000 
 368              		.text
 369              	.Letext0:
 370              		.file 3 "Drivers/CMSIS/Device/ST/STM32F1xx/Include/stdint.h"
 371              		.file 4 "Drivers/CMSIS/Device/ST/STM32F1xx/Include/stm32f103xb.h"
 372              		.file 5 "Drivers/STM32F1xx_HAL_Driver/Inc/stm32f1xx_hal_def.h"
 373              		.file 6 "Drivers/STM32F1xx_HAL_Driver/Inc/stm32f1xx_hal_rcc.h"
 374              		.file 7 "Drivers/STM32F1xx_HAL_Driver/Inc/stm32f1xx_hal_rcc_ex.h"
 375              		.file 8 "Drivers/STM32F1xx_HAL_Driver/Inc/stm32f1xx_hal_dma.h"
 376              		.file 9 "Drivers/STM32F1xx_HAL_Driver/Inc/stm32f1xx_hal_i2c.h"
 377              		.file 10 "Drivers/STM32F1xx_HAL_Driver/Inc/stm32f1xx_hal.h"
 378              		.file 11 "Core/Inc/ssd1306.h"
 379              		.file 12 "Core/Inc/ssd1306_tests.h"
 380              		.file 13 "<built-in>"
ARM GAS  /tmp/cczqctZk.s 			page 14

